target datalayout = "e-m:e-p270:32:32-p271:32:32-p272:64:64-i64:64-i128:128-f80:128-n8:16:32:64-S128"
target triple = "x86_64-pc-linux-gnu"

%"class.std::vector" = type { %"struct.std::_Vector_base" }
%"struct.std::_Vector_base" = type { %"struct.std::_Vector_base<const Variable *, std::allocator<const Variable *>>::_Vector_impl" }
%"struct.std::_Vector_base<const Variable *, std::allocator<const Variable *>>::_Vector_impl" = type { %"struct.std::_Vector_base<const Variable *, std::allocator<const Variable *>>::_Vector_impl_data" }
%"struct.std::_Vector_base<const Variable *, std::allocator<const Variable *>>::_Vector_impl_data" = type { ptr, ptr, ptr }
%class.FactPointTo = type { %class.Fact.base, ptr, %"class.std::vector" }
%class.Fact.base = type <{ ptr, i32 }>
%class.Statement = type { ptr, i32, i32, ptr, ptr }

@_ZN11FactPointTo8null_ptrE = dso_local global ptr null, align 8
@_ZN11FactPointTo11garbage_ptrE = dso_local global ptr null, align 8
@_ZN11FactPointTo7tbd_ptrE = dso_local global ptr null, align 8

; Function Attrs: mustprogress nounwind uwtable
define linkonce_odr dso_local noundef nonnull align 8 dereferenceable(8) ptr @_ZNKSt6vectorIPK8VariableSaIS2_EEixEm(ptr noundef nonnull align 8 dereferenceable(24) %0, i64 noundef %1) #5 comdat align 2 {
  %3 = alloca ptr, align 8
  %4 = alloca i64, align 8
  store ptr %0, ptr %3, align 8, !tbaa !15
  store i64 %1, ptr %4, align 8, !tbaa !28
  %5 = load ptr, ptr %3, align 8
  %6 = getelementptr inbounds nuw %"struct.std::_Vector_base", ptr %5, i32 0, i32 0
  %7 = getelementptr inbounds nuw %"struct.std::_Vector_base<const Variable *, std::allocator<const Variable *>>::_Vector_impl_data", ptr %6, i32 0, i32 0
  %8 = load ptr, ptr %7, align 8, !tbaa !17
  %9 = load i64, ptr %4, align 8, !tbaa !28
  %10 = getelementptr inbounds nuw ptr, ptr %8, i64 %9
  ret ptr %10
}

; Function Attrs: mustprogress nounwind uwtable
define linkonce_odr dso_local noundef i64 @_ZNKSt6vectorIPK8VariableSaIS2_EE4sizeEv(ptr noundef nonnull align 8 dereferenceable(24) %0) #5 comdat align 2 {
  %2 = alloca ptr, align 8
  store ptr %0, ptr %2, align 8, !tbaa !15
  %3 = load ptr, ptr %2, align 8
  %4 = getelementptr inbounds nuw %"struct.std::_Vector_base", ptr %3, i32 0, i32 0
  %5 = getelementptr inbounds nuw %"struct.std::_Vector_base<const Variable *, std::allocator<const Variable *>>::_Vector_impl_data", ptr %4, i32 0, i32 1
  %6 = load ptr, ptr %5, align 8, !tbaa !20
  %7 = getelementptr inbounds nuw %"struct.std::_Vector_base", ptr %3, i32 0, i32 0
  %8 = getelementptr inbounds nuw %"struct.std::_Vector_base<const Variable *, std::allocator<const Variable *>>::_Vector_impl_data", ptr %7, i32 0, i32 0
  %9 = load ptr, ptr %8, align 8, !tbaa !17
  %10 = ptrtoint ptr %6 to i64
  %11 = ptrtoint ptr %9 to i64
  %12 = sub i64 %10, %11
  %13 = sdiv exact i64 %12, 8
  ret i64 %13
}

; Function Attrs: mustprogress uwtable
define linkonce_odr dso_local noundef zeroext i1 @_ZNK8Variable10is_visibleEPK5Block(ptr noundef nonnull align 8 dereferenceable(200) %0, ptr noundef %1) #6 comdat align 2 {
  %3 = alloca ptr, align 8
  %4 = alloca ptr, align 8
  store ptr %0, ptr %3, align 8, !tbaa !4
  store ptr %1, ptr %4, align 8, !tbaa !48
  %5 = load ptr, ptr %3, align 8
  %6 = load ptr, ptr %5, align 8, !tbaa !49
  %7 = getelementptr inbounds ptr, ptr %6, i64 2
  %8 = load ptr, ptr %7, align 8
  %9 = call noundef zeroext i1 %8(ptr noundef nonnull align 8 dereferenceable(200) %5)
  br i1 %9, label %16, label %10

10:                                               ; preds = %2
  %11 = load ptr, ptr %4, align 8, !tbaa !48
  %12 = load ptr, ptr %5, align 8, !tbaa !49
  %13 = getelementptr inbounds ptr, ptr %12, i64 4
  %14 = load ptr, ptr %13, align 8
  %15 = call noundef zeroext i1 %14(ptr noundef nonnull align 8 dereferenceable(200) %5, ptr noundef %11)
  br label %16

16:                                               ; preds = %10, %2
  %17 = phi i1 [ true, %2 ], [ %15, %10 ]
  ret i1 %17
}

; Function Attrs: mustprogress uwtable
define dso_local noundef zeroext i1 @_ZNK11FactPointTo13has_invisibleEPK9Statement(ptr noundef nonnull align 8 dereferenceable(48) %0, ptr noundef %1) #6 align 2 {
  %3 = alloca i1, align 1
  %4 = alloca ptr, align 8
  %5 = alloca ptr, align 8
  %6 = alloca i64, align 8
  %7 = alloca i32, align 4
  %8 = alloca ptr, align 8
  store ptr %0, ptr %4, align 8, !tbaa !26
  store ptr %1, ptr %5, align 8, !tbaa !32
  %9 = load ptr, ptr %4, align 8
  call void @llvm.lifetime.start.p0(i64 8, ptr %6) #3
  %10 = getelementptr inbounds nuw %class.FactPointTo, ptr %9, i32 0, i32 1
  %11 = load ptr, ptr %10, align 8, !tbaa !34
  %12 = load ptr, ptr %5, align 8, !tbaa !32
  %13 = getelementptr inbounds nuw %class.Statement, ptr %12, i32 0, i32 4
  %14 = load ptr, ptr %13, align 8, !tbaa !41
  %15 = call noundef zeroext i1 @_ZNK8Variable10is_visibleEPK5Block(ptr noundef nonnull align 8 dereferenceable(200) %11, ptr noundef %14)
  br i1 %15, label %17, label %16

16:                                               ; preds = %2
  store i1 true, ptr %3, align 1
  store i32 1, ptr %7, align 4
  br label %54

17:                                               ; preds = %2
  store i64 0, ptr %6, align 8, !tbaa !28
  br label %18

18:                                               ; preds = %50, %17
  %19 = load i64, ptr %6, align 8, !tbaa !28
  %20 = getelementptr inbounds nuw %class.FactPointTo, ptr %9, i32 0, i32 2
  %21 = call noundef i64 @_ZNKSt6vectorIPK8VariableSaIS2_EE4sizeEv(ptr noundef nonnull align 8 dereferenceable(24) %20) #3
  %22 = icmp ult i64 %19, %21
  br i1 %22, label %23, label %53

23:                                               ; preds = %18
  call void @llvm.lifetime.start.p0(i64 8, ptr %8) #3
  %24 = getelementptr inbounds nuw %class.FactPointTo, ptr %9, i32 0, i32 2
  %25 = load i64, ptr %6, align 8, !tbaa !28
  %26 = call noundef nonnull align 8 dereferenceable(8) ptr @_ZNKSt6vectorIPK8VariableSaIS2_EEixEm(ptr noundef nonnull align 8 dereferenceable(24) %24, i64 noundef %25) #3
  %27 = load ptr, ptr %26, align 8, !tbaa !4
  store ptr %27, ptr %8, align 8, !tbaa !4
  %28 = load ptr, ptr %8, align 8, !tbaa !4
  %29 = load ptr, ptr @_ZN11FactPointTo8null_ptrE, align 8, !tbaa !4
  %30 = icmp ne ptr %28, %29
  br i1 %30, label %31, label %46

31:                                               ; preds = %23
  %32 = load ptr, ptr %8, align 8, !tbaa !4
  %33 = load ptr, ptr @_ZN11FactPointTo11garbage_ptrE, align 8, !tbaa !4
  %34 = icmp ne ptr %32, %33
  br i1 %34, label %35, label %46

35:                                               ; preds = %31
  %36 = load ptr, ptr %8, align 8, !tbaa !4
  %37 = load ptr, ptr @_ZN11FactPointTo7tbd_ptrE, align 8, !tbaa !4
  %38 = icmp ne ptr %36, %37
  br i1 %38, label %39, label %46

39:                                               ; preds = %35
  %40 = load ptr, ptr %8, align 8, !tbaa !4
  %41 = load ptr, ptr %5, align 8, !tbaa !32
  %42 = getelementptr inbounds nuw %class.Statement, ptr %41, i32 0, i32 4
  %43 = load ptr, ptr %42, align 8, !tbaa !41
  %44 = call noundef zeroext i1 @_ZNK8Variable10is_visibleEPK5Block(ptr noundef nonnull align 8 dereferenceable(200) %40, ptr noundef %43)
  br i1 %44, label %46, label %45

45:                                               ; preds = %39
  store i1 true, ptr %3, align 1
  store i32 1, ptr %7, align 4
  br label %47

46:                                               ; preds = %39, %35, %31, %23
  store i32 0, ptr %7, align 4
  br label %47

47:                                               ; preds = %46, %45
  call void @llvm.lifetime.end.p0(i64 8, ptr %8) #3
  %48 = load i32, ptr %7, align 4
  switch i32 %48, label %54 [
    i32 0, label %49
  ]

49:                                               ; preds = %47
  br label %50

50:                                               ; preds = %49
  %51 = load i64, ptr %6, align 8, !tbaa !28
  %52 = add i64 %51, 1
  store i64 %52, ptr %6, align 8, !tbaa !28
  br label %18, !llvm.loop !47

53:                                               ; preds = %18
  store i1 false, ptr %3, align 1
  store i32 1, ptr %7, align 4
  br label %54

54:                                               ; preds = %53, %47, %16
  call void @llvm.lifetime.end.p0(i64 8, ptr %6) #3
  %55 = load i1, ptr %3, align 1
  ret i1 %55
}