; Function Attrs: mustprogress uwtable
define dso_local noundef zeroext i1 @_ZNK11FactPointTo13has_invisibleEPK9Statement(ptr noundef nonnull readonly align 8 captures(none) dereferenceable(48) %0, ptr noundef readonly captures(none) %1) local_unnamed_addr #6 align 2 {
  %3 = getelementptr inbounds nuw i8, ptr %0, i64 16
  %4 = load ptr, ptr %3, align 8, !tbaa !22
  %5 = getelementptr inbounds nuw i8, ptr %1, i64 24
  %6 = load ptr, ptr %5, align 8, !tbaa !29
  %7 = load ptr, ptr %4, align 8, !tbaa !35
  %8 = getelementptr inbounds nuw i8, ptr %7, i64 16
  %9 = load ptr, ptr %8, align 8
  %10 = tail call noundef zeroext i1 %9(ptr noundef nonnull align 8 dereferenceable(200) %4)
  br i1 %10, label %_ZNK8Variable10is_visibleEPK5Block.exit.preheader, label %11

11:                                               ; preds = %2
  %12 = load ptr, ptr %4, align 8, !tbaa !35
  %13 = getelementptr inbounds nuw i8, ptr %12, i64 32
  %14 = load ptr, ptr %13, align 8
  %15 = tail call noundef zeroext i1 %14(ptr noundef nonnull align 8 dereferenceable(200) %4, ptr noundef %6)
  br i1 %15, label %_ZNK8Variable10is_visibleEPK5Block.exit.preheader, label %.loopexit

_ZNK8Variable10is_visibleEPK5Block.exit.preheader: ; preds = %11, %2
  %16 = getelementptr inbounds nuw i8, ptr %0, i64 24
  %17 = getelementptr inbounds nuw i8, ptr %0, i64 32
  %18 = load ptr, ptr %17, align 8, !tbaa !18
  %19 = load ptr, ptr %16, align 8, !tbaa !4
  %.not20 = icmp eq ptr %18, %19
  br i1 %.not20, label %.loopexit, label %.lr.ph

.lr.ph:                                           ; preds = %_ZNK8Variable10is_visibleEPK5Block.exit.preheader, %.critedge
  %20 = phi ptr [ %38, %.critedge ], [ %19, %_ZNK8Variable10is_visibleEPK5Block.exit.preheader ]
  %.01218 = phi i64 [ %36, %.critedge ], [ 0, %_ZNK8Variable10is_visibleEPK5Block.exit.preheader ]
  %21 = getelementptr inbounds nuw ptr, ptr %20, i64 %.01218
  %22 = load ptr, ptr %21, align 8, !tbaa !19
  %23 = load ptr, ptr @_ZN11FactPointTo8null_ptrE, align 8, !tbaa !19
  %.not = icmp eq ptr %22, %23
  %24 = load ptr, ptr @_ZN11FactPointTo11garbage_ptrE, align 8
  %.not14 = icmp eq ptr %22, %24
  %or.cond = select i1 %.not, i1 true, i1 %.not14
  %25 = load ptr, ptr @_ZN11FactPointTo7tbd_ptrE, align 8
  %.not15 = icmp eq ptr %22, %25
  %or.cond16 = select i1 %or.cond, i1 true, i1 %.not15
  br i1 %or.cond16, label %.critedge, label %26

26:                                               ; preds = %.lr.ph
  %27 = load ptr, ptr %5, align 8, !tbaa !29
  %28 = load ptr, ptr %22, align 8, !tbaa !35
  %29 = getelementptr inbounds nuw i8, ptr %28, i64 16
  %30 = load ptr, ptr %29, align 8
  %31 = tail call noundef zeroext i1 %30(ptr noundef nonnull align 8 dereferenceable(200) %22)
  br i1 %31, label %.critedge, label %_ZNK8Variable10is_visibleEPK5Block.exit17

_ZNK8Variable10is_visibleEPK5Block.exit17:        ; preds = %26
  %32 = load ptr, ptr %22, align 8, !tbaa !35
  %33 = getelementptr inbounds nuw i8, ptr %32, i64 32
  %34 = load ptr, ptr %33, align 8
  %35 = tail call noundef zeroext i1 %34(ptr noundef nonnull align 8 dereferenceable(200) %22, ptr noundef %27)
  br i1 %35, label %.critedge, label %.loopexit

.critedge:                                        ; preds = %26, %_ZNK8Variable10is_visibleEPK5Block.exit17, %.lr.ph
  %36 = add nuw i64 %.01218, 1
  %37 = load ptr, ptr %17, align 8, !tbaa !18
  %38 = load ptr, ptr %16, align 8, !tbaa !4
  %39 = ptrtoint ptr %37 to i64
  %40 = ptrtoint ptr %38 to i64
  %41 = sub i64 %39, %40
  %42 = ashr exact i64 %41, 3
  %43 = icmp ult i64 %36, %42
  br i1 %43, label %.lr.ph, label %.loopexit, !llvm.loop !37

.loopexit:                                        ; preds = %_ZNK8Variable10is_visibleEPK5Block.exit17, %.critedge, %_ZNK8Variable10is_visibleEPK5Block.exit.preheader, %11
  %.0 = phi i1 [ true, %11 ], [ false, %_ZNK8Variable10is_visibleEPK5Block.exit.preheader ], [ true, %_ZNK8Variable10is_visibleEPK5Block.exit17 ], [ false, %.critedge ]
  ret i1 %.0
}